target datalayout = "e-m:e-p270:32:32-p271:32:32-p272:64:64-i64:64-i128:128-f80:128-n8:16:32:64-S128"
target triple = "x86_64-pc-linux-gnu"

%struct.pmix_lock_t = type { i32, %struct.pmix_mutex_t, %union.pthread_cond_t, i8 }
%struct.pmix_mutex_t = type { %struct.pmix_object_t, %union.pthread_mutex_t }
%struct.pmix_object_t = type { %union.pthread_mutex_t, ptr, i32, %struct.pmix_tma }
%struct.pmix_tma = type { ptr, ptr, ptr, ptr, ptr, ptr, ptr, ptr }
%union.pthread_mutex_t = type { %struct.__pthread_mutex_s }
%struct.__pthread_mutex_s = type { i32, i32, i32, i32, i32, i16, i16, %struct.__pthread_internal_list }
%struct.__pthread_internal_list = type { ptr, ptr }
%union.pthread_cond_t = type { %struct.__pthread_cond_s }
%struct.__pthread_cond_s = type { %union.__atomic_wide_counter, %union.__atomic_wide_counter, [2 x i32], [2 x i32], i32, i32, [2 x i32] }
%union.__atomic_wide_counter = type { i64 }
%struct.pmix_proc = type { [256 x i8], i32 }
%struct.timeval = type { i64, i64 }
%struct.pmix_pointer_array_t = type { %struct.pmix_object_t, i32, i32, i32, i32, i32, ptr, ptr }
%struct.pmix_list_t = type { %struct.pmix_object_t, %struct.pmix_list_item_t, i64 }
%struct.pmix_list_item_t = type { %struct.pmix_object_t, ptr, ptr, i32 }
%struct.pmix_iof_flags_t = type { i8, i8, i8, i8, i8, i8, i8, ptr, ptr, i8, i8, i8, i8, i8, i8 }
%struct.pmix_client_globals_t = type { ptr, i8, %struct.pmix_list_t, %struct.pmix_pointer_array_t, %struct.pmix_list_t, i32, i32, i32, i32, i32, i32, i32, i32, i32, i32, i32, i32, i32, i32, i32, i32, %struct.pmix_iof_sink_t, %struct.pmix_iof_sink_t, i32, i32 }
%struct.pmix_iof_sink_t = type { %struct.pmix_list_item_t, %struct.pmix_proc, i16, %struct.pmix_iof_write_event_t, i8, i8, i8 }
%struct.pmix_iof_write_event_t = type { %struct.pmix_list_item_t, i8, i8, i32, ptr, %struct.timeval, i32, %struct.pmix_list_t }
%struct.pmix_cb_t = type { %struct.pmix_list_item_t, %struct.event, %struct.pmix_lock_t, i8, i32, i32, i8, %struct.pmix_buffer_t, %union.anon.9, i64, ptr, %struct.pmix_name_t, ptr, ptr, ptr, ptr, i64, ptr, i64, ptr, i8, i64, %struct.pmix_list_t, i8, ptr, i8, ptr, ptr }
%struct.event = type { %struct.event_callback, %union.anon.2, i32, ptr, %union.anon.4, i16, i16, %struct.timeval }
%struct.event_callback = type { %struct.anon.0, i16, i8, i8, %union.anon.1, ptr }
%struct.anon.0 = type { ptr, ptr }
%union.anon.1 = type { ptr }
%union.anon.2 = type { %struct.anon.3 }
%struct.anon.3 = type { ptr, ptr }
%union.anon.4 = type { %struct.anon.5 }
%struct.anon.5 = type { %struct.anon.6, %struct.timeval }
%struct.anon.6 = type { ptr, ptr }
%struct.pmix_buffer_t = type { %struct.pmix_object_t, i8, ptr, ptr, ptr, i64, i64 }
%union.anon.9 = type { ptr }
%struct.pmix_name_t = type { ptr, i32 }
%struct.pmix_peer_t = type { %struct.pmix_object_t, ptr, ptr, %struct.pmix_proc_type_t, i16, i32, i32, i32, i8, %struct.event, i8, %struct.event, i8, %struct.pmix_list_t, ptr, ptr, i32, %struct.pmix_epilog_t }
%struct.pmix_proc_type_t = type { i32, i8, i8, i8, i8 }
%struct.pmix_epilog_t = type { i32, i32, %struct.pmix_list_t, %struct.pmix_list_t, %struct.pmix_list_t }
%struct.pmix_namespace_t = type { %struct.pmix_list_item_t, ptr, %struct.anon.10, i32, i64, i64, i8, i8, ptr, i64, i64, %struct.pmix_list_t, %struct.pmix_personality_t, %struct.pmix_epilog_t, %struct.pmix_list_t, %struct.pmix_iof_flags_t, %struct.pmix_list_t }
%struct.anon.10 = type { i8, i8, i8 }
%struct.pmix_personality_t = type { i8, ptr, ptr, ptr }
%struct.pmix_bfrops_module_t = type { ptr, ptr, ptr, ptr, ptr, ptr, ptr, ptr, ptr, ptr, ptr, ptr, ptr }

@pmix_client_globals = external global %struct.pmix_client_globals_t, align 8
@.str.18 = private unnamed_addr constant [37 x i8] c"PMIX ERROR: %s in file %s at line %d\00", align 1
@.str.19 = private unnamed_addr constant [25 x i8] c"client/pmix_client_get.c\00", align 1

; Function Attrs: inlinehint nounwind uwtable
define internal void @pmix_mutex_unlock(ptr noundef %0) #2 {
  %2 = alloca ptr, align 8
  store ptr %0, ptr %2, align 8, !tbaa !85
  %3 = load ptr, ptr %2, align 8, !tbaa !85
  %4 = getelementptr inbounds nuw %struct.pmix_mutex_t, ptr %3, i32 0, i32 1
  %5 = call i32 @pthread_mutex_unlock(ptr noundef %4) #11
  ret void
}

; Function Attrs: inlinehint nounwind uwtable
define internal void @pmix_mutex_lock(ptr noundef %0) #2 {
  %2 = alloca ptr, align 8
  store ptr %0, ptr %2, align 8, !tbaa !85
  %3 = load ptr, ptr %2, align 8, !tbaa !85
  %4 = getelementptr inbounds nuw %struct.pmix_mutex_t, ptr %3, i32 0, i32 1
  %5 = call i32 @pthread_mutex_lock(ptr noundef %4) #11
  ret void
}

; Function Attrs: inlinehint nounwind uwtable
define internal void @pmix_atomic_wmb() #2 {
  fence release
  ret void
}

; Function Attrs: inlinehint nounwind uwtable
define internal void @pmix_atomic_rmb() #2 {
  fence acquire
  ret void
}

; Function Attrs: nounwind uwtable
define internal void @_value_cbfunc(i32 noundef %0, ptr noundef %1, ptr noundef %2) #0 {
  %4 = alloca i32, align 4
  %5 = alloca ptr, align 8
  %6 = alloca ptr, align 8
  %7 = alloca ptr, align 8
  %8 = alloca i32, align 4
  store i32 %0, ptr %4, align 4, !tbaa !56
  store ptr %1, ptr %5, align 8, !tbaa !60
  store ptr %2, ptr %6, align 8, !tbaa !55
  call void @llvm.lifetime.start.p0(i64 8, ptr %7) #11
  call void @llvm.lifetime.start.p0(i64 4, ptr %8) #11
  call void @pmix_atomic_rmb()
  %9 = load ptr, ptr %6, align 8, !tbaa !55
  store ptr %9, ptr %7, align 8, !tbaa !55
  %10 = load i32, ptr %4, align 4, !tbaa !56
  %11 = load ptr, ptr %7, align 8, !tbaa !55
  %12 = getelementptr inbounds nuw %struct.pmix_cb_t, ptr %11, i32 0, i32 4
  store i32 %10, ptr %12, align 4, !tbaa !83
  %13 = load i32, ptr %4, align 4, !tbaa !56
  %14 = icmp eq i32 0, %13
  br i1 %14, label %15, label %41

15:                                               ; preds = %3
  %16 = load ptr, ptr @pmix_client_globals, align 8, !tbaa !134
  %17 = getelementptr inbounds nuw %struct.pmix_peer_t, ptr %16, i32 0, i32 1
  %18 = load ptr, ptr %17, align 8, !tbaa !135
  %19 = getelementptr inbounds nuw %struct.pmix_namespace_t, ptr %18, i32 0, i32 12
  %20 = getelementptr inbounds nuw %struct.pmix_personality_t, ptr %19, i32 0, i32 1
  %21 = load ptr, ptr %20, align 8, !tbaa !142
  %22 = getelementptr inbounds nuw %struct.pmix_bfrops_module_t, ptr %21, i32 0, i32 5
  %23 = load ptr, ptr %22, align 8, !tbaa !157
  %24 = load ptr, ptr %7, align 8, !tbaa !55
  %25 = getelementptr inbounds nuw %struct.pmix_cb_t, ptr %24, i32 0, i32 13
  %26 = load ptr, ptr %5, align 8, !tbaa !60
  %27 = call i32 %23(ptr noundef %25, ptr noundef %26, i16 noundef zeroext 21)
  store i32 %27, ptr %8, align 4, !tbaa !56
  %28 = load i32, ptr %8, align 4, !tbaa !56
  %29 = icmp ne i32 0, %28
  br i1 %29, label %30, label %40

30:                                               ; preds = %15
  br label %31

31:                                               ; preds = %30
  %32 = load i32, ptr %8, align 4, !tbaa !56
  %33 = icmp ne i32 -2, %32
  br i1 %33, label %34, label %37

34:                                               ; preds = %31
  %35 = load i32, ptr %8, align 4, !tbaa !56
  %36 = call ptr @PMIx_Error_string(i32 noundef %35)
  call void (i32, ptr, ...) @pmix_output(i32 noundef 0, ptr noundef @.str.18, ptr noundef %36, ptr noundef @.str.19, i32 noundef 477)
  br label %37

37:                                               ; preds = %34, %31
  br label %38

38:                                               ; preds = %37
  br label %39

39:                                               ; preds = %38
  br label %40

40:                                               ; preds = %39, %15
  br label %41

41:                                               ; preds = %40, %3
  call void @pmix_atomic_wmb()
  br label %42

42:                                               ; preds = %41
  %43 = load ptr, ptr %7, align 8, !tbaa !55
  %44 = getelementptr inbounds nuw %struct.pmix_cb_t, ptr %43, i32 0, i32 2
  %45 = getelementptr inbounds nuw %struct.pmix_lock_t, ptr %44, i32 0, i32 1
  call void @pmix_mutex_lock(ptr noundef %45)
  %46 = load ptr, ptr %7, align 8, !tbaa !55
  %47 = getelementptr inbounds nuw %struct.pmix_cb_t, ptr %46, i32 0, i32 2
  %48 = getelementptr inbounds nuw %struct.pmix_lock_t, ptr %47, i32 0, i32 3
  store volatile i8 0, ptr %48, align 8, !tbaa !81
  call void @pmix_atomic_wmb()
  %49 = load ptr, ptr %7, align 8, !tbaa !55
  %50 = getelementptr inbounds nuw %struct.pmix_cb_t, ptr %49, i32 0, i32 2
  %51 = getelementptr inbounds nuw %struct.pmix_lock_t, ptr %50, i32 0, i32 2
  %52 = call i32 @pthread_cond_broadcast(ptr noundef %51) #11
  %53 = load ptr, ptr %7, align 8, !tbaa !55
  %54 = getelementptr inbounds nuw %struct.pmix_cb_t, ptr %53, i32 0, i32 2
  %55 = getelementptr inbounds nuw %struct.pmix_lock_t, ptr %54, i32 0, i32 1
  call void @pmix_mutex_unlock(ptr noundef %55)
  br label %56

56:                                               ; preds = %42
  br label %57

57:                                               ; preds = %56
  call void @llvm.lifetime.end.p0(i64 4, ptr %8) #11
  call void @llvm.lifetime.end.p0(i64 8, ptr %7) #11
  ret void
}