; Function Attrs: nounwind uwtable
define internal void @_value_cbfunc(i32 noundef %0, ptr noundef %1, ptr noundef initializes((500, 504)) %2) #0 {
  fence acquire
  %4 = getelementptr inbounds nuw i8, ptr %2, i64 500
  store i32 %0, ptr %4, align 4, !tbaa !85
  %5 = icmp eq i32 %0, 0
  br i1 %5, label %6, label %18

6:                                                ; preds = %3
  %7 = load ptr, ptr @pmix_client_globals, align 8, !tbaa !121
  %8 = getelementptr inbounds nuw i8, ptr %7, i64 120
  %9 = load ptr, ptr %8, align 8, !tbaa !122
  %10 = getelementptr inbounds nuw i8, ptr %9, i64 488
  %11 = load ptr, ptr %10, align 8, !tbaa !129
  %12 = getelementptr inbounds nuw i8, ptr %11, i64 40
  %13 = load ptr, ptr %12, align 8, !tbaa !143
  %14 = getelementptr inbounds nuw i8, ptr %2, i64 728
  %15 = tail call i32 %13(ptr noundef nonnull %14, ptr noundef %1, i16 noundef zeroext 21) #14
  switch i32 %15, label %16 [
    i32 -2, label %18
    i32 0, label %18
  ]

16:                                               ; preds = %6
  %17 = tail call ptr @PMIx_Error_string(i32 noundef %15) #14
  tail call void (i32, ptr, ...) @pmix_output(i32 noundef 0, ptr noundef nonnull @.str.18, ptr noundef %17, ptr noundef nonnull @.str.19, i32 noundef 477) #14
  br label %18

18:                                               ; preds = %6, %6, %16, %3
  fence release
  %19 = getelementptr inbounds nuw i8, ptr %2, i64 400
  %20 = tail call i32 @pthread_mutex_lock(ptr noundef nonnull %19) #14
  %21 = getelementptr inbounds nuw i8, ptr %2, i64 488
  store volatile i8 0, ptr %21, align 8, !tbaa !83
  fence release
  %22 = getelementptr inbounds nuw i8, ptr %2, i64 440
  %23 = tail call i32 @pthread_cond_broadcast(ptr noundef nonnull %22) #14
  %24 = tail call i32 @pthread_mutex_unlock(ptr noundef nonnull %19) #14
  ret void
}